target datalayout = "e-m:e-p270:32:32-p271:32:32-p272:64:64-i64:64-i128:128-f80:128-n8:16:32:64-S128"
target triple = "x86_64-unknown-linux-gnu"

%"class.hermes::vm::HandleBase" = type { ptr }
%"class.hermes::vm::Handle.159" = type { %"class.hermes::vm::HandleBase" }
%"class.hermes::vm::Handle" = type { %"class.hermes::vm::HandleBase" }
%"class.hermes::vm::Handle.154" = type { %"class.hermes::vm::HandleBase" }
%"class.hermes::vm::MutableHandle" = type { %"class.hermes::vm::Handle" }
%"class.hermes::vm::GCScope::Marker" = type <{ ptr, i32, [4 x i8] }>
%"class.hermes::vm::GCScope" = type <{ ptr, ptr, [128 x i8], %"class.llvh::SmallVector.160", ptr, ptr, i32, [4 x i8] }>
%"class.llvh::SmallVector.160" = type { %"class.llvh::SmallVectorImpl.161", %"struct.llvh::SmallVectorStorage.164" }
%"class.llvh::SmallVectorImpl.161" = type { %"class.llvh::SmallVectorTemplateBase.162" }
%"class.llvh::SmallVectorTemplateBase.162" = type { %"class.llvh::SmallVectorTemplateCommon.163" }
%"class.llvh::SmallVectorTemplateCommon.163" = type { %"class.llvh::SmallVectorBase" }
%"class.llvh::SmallVectorBase" = type { ptr, i32, i32 }
%"struct.llvh::SmallVectorStorage.164" = type { [4 x %"struct.llvh::AlignedCharArrayUnion.165"] }
%"struct.llvh::AlignedCharArrayUnion.165" = type { %"struct.llvh::AlignedCharArray.166" }
%"struct.llvh::AlignedCharArray.166" = type { [8 x i8] }
%"class.hermes::vm::(anonymous namespace)::TypedArraySortModel" = type { %"class.hermes::vm::SortModel", ptr, %"class.hermes::vm::GCScope", %"class.hermes::vm::Handle.154", %"class.hermes::vm::Handle.159", %"class.hermes::vm::MutableHandle", %"class.hermes::vm::MutableHandle", %"class.hermes::vm::GCScope::Marker" }
%"class.hermes::vm::SortModel" = type { ptr }

; Function Attrs: mustprogress nounwind uwtable
define internal void @_ZN6hermes2vm12_GLOBAL__N_119TypedArraySortModelILb1EED2Ev(ptr noundef nonnull align 8 dereferenceable(280) %this) unnamed_addr #0 align 2 {
entry:
  %this.addr = alloca ptr, align 8
  store ptr %this, ptr %this.addr, align 8
  %this1 = load ptr, ptr %this.addr, align 8
  store ptr getelementptr inbounds ({ [6 x ptr] }, ptr @_ZTVN6hermes2vm12_GLOBAL__N_119TypedArraySortModelILb1EEE, i32 0, i32 0, i32 2), ptr %this1, align 8
  %gcScope_ = getelementptr inbounds %"class.hermes::vm::(anonymous namespace)::TypedArraySortModel", ptr %this1, i32 0, i32 2
  call void @_ZN6hermes2vm7GCScopeD1Ev(ptr noundef nonnull align 8 dereferenceable(212) %gcScope_) #10
  call void @_ZN6hermes2vm9SortModelD2Ev(ptr noundef nonnull align 8 dereferenceable(8) %this1) #10
  ret void
}

; Function Attrs: mustprogress nounwind uwtable
define internal void @_ZN6hermes2vm12_GLOBAL__N_119TypedArraySortModelILb1EED0Ev(ptr noundef nonnull align 8 dereferenceable(280) %this) unnamed_addr #0 align 2 {
entry:
  %this.addr = alloca ptr, align 8
  store ptr %this, ptr %this.addr, align 8
  %this1 = load ptr, ptr %this.addr, align 8
  call void @_ZN6hermes2vm12_GLOBAL__N_119TypedArraySortModelILb1EED2Ev(ptr noundef nonnull align 8 dereferenceable(280) %this1) #10
  call void @_ZdlPv(ptr noundef %this1) #12
  ret void
}